libquazip.so.0 libquazip0 #MINVER#
 _Z24qiodevice_open_file_funcPvS_i@Base 0.4.4
 _Z24qiodevice_read_file_funcPvS_S_m@Base 0.4.4
 _Z24qiodevice_seek_file_funcPvS_mi@Base 0.4.4
 _Z24qiodevice_tell_file_funcPvS_@Base 0.4.4
 _Z25qiodevice_close_file_funcPvS_@Base 0.4.4
 _Z25qiodevice_error_file_funcPvS_@Base 0.4.4
 _Z25qiodevice_write_file_funcPvS_PKvm@Base 0.4.4
 _ZN10JlCompress10extractDirE7QStringS0_@Base 0.4.4
 _ZN10JlCompress11compressDirE7QStringS0_b@Base 0.4.4
 _ZN10JlCompress11extractFileE7QStringS0_S0_@Base 0.4.4
 _ZN10JlCompress11getFileListE7QString@Base 0.4.4
 _ZN10JlCompress12compressFileE7QStringS0_@Base 0.4.4
 _ZN10JlCompress12extractFilesE7QString11QStringListS0_@Base 0.4.4
 _ZN10JlCompress13compressFilesE7QString11QStringList@Base 0.4.4
 _ZN10QuaAdler325resetEv@Base 0.4.4
 _ZN10QuaAdler325valueEv@Base 0.4.4
 _ZN10QuaAdler326updateERK10QByteArray@Base 0.4.4
 _ZN10QuaAdler329calculateERK10QByteArray@Base 0.4.4
 _ZN10QuaAdler32C1Ev@Base 0.4.4
 _ZN10QuaAdler32C2Ev@Base 0.4.4
 _ZN10QuaZipFile10setZipNameERK7QString@Base 0.4.4
 _ZN10QuaZipFile11getFileInfoEP14QuaZipFileInfo@Base 0.4.4
 _ZN10QuaZipFile11setFileNameERK7QStringN6QuaZip15CaseSensitivityE@Base 0.4.4
 _ZN10QuaZipFile4openE6QFlagsIN9QIODevice12OpenModeFlagEE@Base 0.4.4
 _ZN10QuaZipFile4openE6QFlagsIN9QIODevice12OpenModeFlagEEPiS4_bPKc@Base 0.4.4
 _ZN10QuaZipFile4openE6QFlagsIN9QIODevice12OpenModeFlagEERK13QuaZipNewInfoPKcjiibiii@Base 0.4.4
 _ZN10QuaZipFile5closeEv@Base 0.4.4
 _ZN10QuaZipFile6setZipEP6QuaZip@Base 0.4.4
 _ZN10QuaZipFile8readDataEPcx@Base 0.4.4
 _ZN10QuaZipFile9writeDataEPKcx@Base 0.4.4
 _ZN10QuaZipFileC1EP6QuaZipP7QObject@Base 0.4.4
 _ZN10QuaZipFileC1EP7QObject@Base 0.4.4
 _ZN10QuaZipFileC1ERK7QStringP7QObject@Base 0.4.4
 _ZN10QuaZipFileC1ERK7QStringS2_N6QuaZip15CaseSensitivityEP7QObject@Base 0.4.4
 _ZN10QuaZipFileC1Ev@Base 0.4.4
 _ZN10QuaZipFileC2EP6QuaZipP7QObject@Base 0.4.4
 _ZN10QuaZipFileC2EP7QObject@Base 0.4.4
 _ZN10QuaZipFileC2ERK7QStringP7QObject@Base 0.4.4
 _ZN10QuaZipFileC2ERK7QStringS2_N6QuaZip15CaseSensitivityEP7QObject@Base 0.4.4
 _ZN10QuaZipFileC2Ev@Base 0.4.4
 _ZN10QuaZipFileD0Ev@Base 0.4.4
 _ZN10QuaZipFileD1Ev@Base 0.4.4
 _ZN10QuaZipFileD2Ev@Base 0.4.4
 _ZN13QuaZipNewInfo15setFileDateTimeERK7QString@Base 0.4.4
 _ZN13QuaZipNewInfoC1ERK7QString@Base 0.4.4
 _ZN13QuaZipNewInfoC1ERK7QStringS2_@Base 0.4.4
 _ZN13QuaZipNewInfoC2ERK7QString@Base 0.4.4
 _ZN13QuaZipNewInfoC2ERK7QStringS2_@Base 0.4.4
 _ZN13QuaZipNewInfoD1Ev@Base 0.4.4
 _ZN13QuaZipNewInfoD2Ev@Base 0.4.4
 _ZN14QuaZipFileInfoD1Ev@Base 0.4.4
 _ZN14QuaZipFileInfoD2Ev@Base 0.4.4
 _ZN6QuaZip10getUnzFileEv@Base 0.4.4
 _ZN6QuaZip10getZipFileEv@Base 0.4.4
 _ZN6QuaZip10setCommentERK7QString@Base 0.4.4
 _ZN6QuaZip10setZipNameERK7QString@Base 0.4.4
 _ZN6QuaZip11setIoDeviceEP9QIODevice@Base 0.4.4
 _ZN6QuaZip12goToNextFileEv@Base 0.4.4
 _ZN6QuaZip13goToFirstFileEv@Base 0.4.4
 _ZN6QuaZip14setCurrentFileERK7QStringNS_15CaseSensitivityE@Base 0.4.4
 _ZN6QuaZip15setCommentCodecEP10QTextCodec@Base 0.4.4
 _ZN6QuaZip15setCommentCodecEPKc@Base 0.4.4
 _ZN6QuaZip16setFileNameCodecEP10QTextCodec@Base 0.4.4
 _ZN6QuaZip16setFileNameCodecEPKc@Base 0.4.4
 _ZN6QuaZip31setDataDescriptorWritingEnabledEb@Base 0.4.4
 _ZN6QuaZip4openENS_4ModeEP19zlib_filefunc_def_s@Base 0.4.4
 _ZN6QuaZip5closeEv@Base 0.4.4
 _ZN6QuaZipC1EP9QIODevice@Base 0.4.4
 _ZN6QuaZipC1ERK7QString@Base 0.4.4
 _ZN6QuaZipC1Ev@Base 0.4.4
 _ZN6QuaZipC2EP9QIODevice@Base 0.4.4
 _ZN6QuaZipC2ERK7QString@Base 0.4.4
 _ZN6QuaZipC2Ev@Base 0.4.4
 _ZN6QuaZipD1Ev@Base 0.4.4
 _ZN6QuaZipD2Ev@Base 0.4.4
 _ZN7QStringD1Ev@Base 0.4.4
 _ZN7QStringD2Ev@Base 0.4.4
 _ZN8QuaCrc325resetEv@Base 0.4.4
 _ZN8QuaCrc325valueEv@Base 0.4.4
 _ZN8QuaCrc326updateERK10QByteArray@Base 0.4.4
 _ZN8QuaCrc329calculateERK10QByteArray@Base 0.4.4
 _ZN8QuaCrc32C1Ev@Base 0.4.4
 _ZN8QuaCrc32C2Ev@Base 0.4.4
 _ZNK10QuaZipFile10getZipNameEv@Base 0.4.4
 _ZNK10QuaZipFile10metaObjectEv@Base 0.4.4
 _ZNK10QuaZipFile11getFileNameEv@Base 0.4.4
 _ZNK10QuaZipFile11getZipErrorEv@Base 0.4.4
 _ZNK10QuaZipFile12isSequentialEv@Base 0.4.4
 _ZNK10QuaZipFile14bytesAvailableEv@Base 0.4.4
 _ZNK10QuaZipFile17getActualFileNameEv@Base 0.4.4
 _ZNK10QuaZipFile18getCaseSensitivityEv@Base 0.4.4
 _ZNK10QuaZipFile3posEv@Base 0.4.4
 _ZNK10QuaZipFile4sizeEv@Base 0.4.4
 _ZNK10QuaZipFile5atEndEv@Base 0.4.4
 _ZNK10QuaZipFile5csizeEv@Base 0.4.4
 _ZNK10QuaZipFile5isRawEv@Base 0.4.4
 _ZNK10QuaZipFile5usizeEv@Base 0.4.4
 _ZNK10QuaZipFile6getZipEv@Base 0.4.4
 _ZNK6QuaZip10getCommentEv@Base 0.4.4
 _ZNK6QuaZip10getZipNameEv@Base 0.4.4
 _ZNK6QuaZip11getIoDeviceEv@Base 0.4.4
 _ZNK6QuaZip11getZipErrorEv@Base 0.4.4
 _ZNK6QuaZip14hasCurrentFileEv@Base 0.4.4
 _ZNK6QuaZip15getCommentCodecEv@Base 0.4.4
 _ZNK6QuaZip15getEntriesCountEv@Base 0.4.4
 _ZNK6QuaZip15getFileInfoListEv@Base 0.4.4
 _ZNK6QuaZip15getFileNameListEv@Base 0.4.4
 _ZNK6QuaZip16getFileNameCodecEv@Base 0.4.4
 _ZNK6QuaZip18getCurrentFileInfoEP14QuaZipFileInfo@Base 0.4.4
 _ZNK6QuaZip18getCurrentFileNameEv@Base 0.4.4
 _ZNK6QuaZip30isDataDescriptorWritingEnabledEv@Base 0.4.4
 _ZNK6QuaZip6isOpenEv@Base 0.4.4
 _ZNK6QuaZip7getModeEv@Base 0.4.4
 _ZTI10QuaAdler32@Base 0.4.4
 _ZTI10QuaZipFile@Base 0.4.4
 _ZTI13QuaChecksum32@Base 0.4.4
 _ZTI8QuaCrc32@Base 0.4.4
 _ZTS10QuaAdler32@Base 0.4.4
 _ZTS10QuaZipFile@Base 0.4.4
 _ZTS13QuaChecksum32@Base 0.4.4
 _ZTS8QuaCrc32@Base 0.4.4
 _ZTV10QuaAdler32@Base 0.4.4
 _ZTV10QuaZipFile@Base 0.4.4
 _ZTV13QuaChecksum32@Base 0.4.4
 _ZTV8QuaCrc32@Base 0.4.4
 fill_qiodevice_filefunc@Base 0.4.4
 unzClose@Base 0.4.4
 unzCloseCurrentFile@Base 0.4.4
 unzGetCurrentFileInfo@Base 0.4.4
 unzGetFilePos@Base 0.4.4
 unzGetGlobalComment@Base 0.4.4
 unzGetGlobalInfo@Base 0.4.4
 unzGetLocalExtrafield@Base 0.4.4
 unzGetOffset@Base 0.4.4
 unzGoToFilePos@Base 0.4.4
 unzGoToFirstFile@Base 0.4.4
 unzGoToNextFile@Base 0.4.4
 unzLocateFile@Base 0.4.4
 unzOpen2@Base 0.4.4
 unzOpen@Base 0.4.4
 unzOpenCurrentFile2@Base 0.4.4
 unzOpenCurrentFile3@Base 0.4.4
 unzOpenCurrentFile@Base 0.4.4
 unzOpenCurrentFilePassword@Base 0.4.4
 unzReadCurrentFile@Base 0.4.4
 unzSetOffset@Base 0.4.4
 unzStringFileNameCompare@Base 0.4.4
 unz_copyright@Base 0.4.4
 unzeof@Base 0.4.4
 unztell@Base 0.4.4
 zipClearFlags@Base 0.4.4
 zipClose@Base 0.4.4
 zipCloseFileInZip@Base 0.4.4
 zipCloseFileInZipRaw@Base 0.4.4
 zipOpen2@Base 0.4.4
 zipOpen@Base 0.4.4
 zipOpenNewFileInZip2@Base 0.4.4
 zipOpenNewFileInZip3@Base 0.4.4
 zipOpenNewFileInZip@Base 0.4.4
 zipSetFlags@Base 0.4.4
 zipWriteInFileInZip@Base 0.4.4
 zip_copyright@Base 0.4.4
